Certificate:
    Data:
        Version: 1 (0x0)
        Serial Number:
            c3:59:3d:a2:a0:74:72:21
    Signature Algorithm: sha1WithRSAEncryption
        Issuer: C=US, ST=Virginia, L=Mclean, O=Produxi Internetworks, OU=Internal SSL Services, CN=Produxi SSL CA (Internal)
        Validity
            Not Before: Dec 24 18:32:10 2013 GMT
            Not After : Jan  1 18:32:10 2024 GMT
        Subject: C=US, ST=Virginia, L=Mclean, O=Produxi Internetworks, OU=Internal SSL Services, CN=Produxi SSL CA (Internal)
        Subject Public Key Info:
            Public Key Algorithm: rsaEncryption
                Public-Key: (4096 bit)
                Modulus:
                    00:cd:0a:e2:9b:a4:e2:ab:1c:c6:92:71:eb:e4:fe:
                    90:3e:9d:17:61:af:a4:26:22:c5:da:af:55:b2:d1:
                    d3:68:ad:1e:2d:18:2f:43:e8:11:66:1d:7d:8f:b6:
                    91:fa:19:7a:c9:a9:6c:49:95:f7:f4:35:a4:33:8f:
                    91:c3:a0:ac:d6:eb:d2:0a:b5:c2:fa:e0:22:05:9c:
                    4b:b7:e0:6a:d7:cf:ec:c1:2d:95:16:49:bb:f0:53:
                    5b:ef:c7:15:e7:73:a8:50:99:77:01:3e:c8:41:c1:
                    a2:1c:b9:83:32:ae:5c:2d:a5:92:2a:f6:12:21:65:
                    fa:de:69:48:fd:67:22:22:19:e3:0d:97:ee:50:be:
                    a9:54:8c:0d:23:76:3d:64:bb:9d:b7:0a:0b:7f:d8:
                    26:a4:45:d0:c1:c3:0e:97:cc:bf:be:2f:71:21:58:
                    ee:e9:04:bc:4a:da:60:41:7f:30:0c:46:e4:ba:74:
                    1a:eb:f2:6b:c5:b9:90:0b:61:ba:23:16:d8:05:06:
                    67:75:f0:2a:e0:1f:0b:39:ef:c3:46:26:5d:e4:0a:
                    ce:de:14:c7:31:d8:d2:0e:fa:b3:66:93:2f:92:b9:
                    1c:4b:2b:44:3b:7f:66:5c:2a:22:a0:c9:0d:dc:7e:
                    e9:68:aa:8d:9c:11:72:9b:c9:51:3f:be:cb:31:b9:
                    9f:e7:d3:19:51:e8:de:ec:3c:3a:0d:69:ff:73:5a:
                    bd:05:d9:35:16:db:96:dc:e9:43:ce:f0:7d:cd:63:
                    0b:79:a1:3a:f2:ff:b2:de:a4:b9:0b:68:5b:67:30:
                    62:18:32:64:b5:44:01:93:a9:a3:56:b0:02:2d:ee:
                    05:3c:a1:58:64:4c:7c:07:7d:47:bd:d5:f4:6c:10:
                    bd:2a:3e:fe:02:6a:f0:17:2c:d2:a1:1b:a2:05:9c:
                    d7:59:6e:c5:d3:12:75:8e:89:35:fe:1a:a4:a2:6f:
                    16:2b:1e:fc:d2:d2:ad:55:70:fe:af:26:e9:3e:39:
                    ef:ce:3c:32:af:f8:8d:59:4d:c2:2b:a7:de:b6:3d:
                    ec:c0:90:35:4a:91:1b:8a:52:aa:ca:45:e7:83:91:
                    7a:14:5d:14:86:a4:9a:0a:e4:a6:d8:95:66:36:6e:
                    66:0f:e0:17:a6:a2:05:ee:9f:20:d7:3c:3c:21:ca:
                    29:8d:4c:aa:47:33:01:e5:2a:a4:af:e6:4f:d1:27:
                    ee:ea:55:d3:1c:60:c0:70:75:04:17:05:2b:ef:84:
                    79:74:80:0f:81:fa:21:18:96:f4:a1:25:74:53:88:
                    38:fc:ca:9e:ec:f8:5a:07:b8:c3:b6:f7:2d:0a:14:
                    4f:9e:f6:72:1e:1c:cb:3b:9d:64:cc:fb:9f:e1:13:
                    72:52:1b
                Exponent: 65537 (0x10001)
    Signature Algorithm: sha1WithRSAEncryption
         ba:99:12:28:0d:3d:84:ef:5d:ea:cf:50:d9:9e:05:78:db:4f:
         78:72:f3:9e:b2:a4:21:9c:8d:a2:d9:be:5d:59:70:99:ce:9e:
         9c:df:f3:29:dc:ee:41:39:94:a5:dc:f1:cd:9c:2b:24:c0:3b:
         85:99:07:2d:31:1c:6a:f9:11:47:a7:44:26:b3:8d:8e:58:88:
         92:d3:86:70:02:1a:ea:28:59:91:93:f5:ab:62:24:53:e9:f2:
         05:3f:a3:8e:66:31:22:e8:1d:f9:5c:0d:a9:cd:4b:19:67:49:
         5d:0b:c7:ea:72:9f:3c:45:f3:84:0d:1f:fc:8d:b1:4b:2e:5d:
         cc:c7:80:d2:78:ae:91:69:21:14:7b:d5:2c:c0:30:4c:13:40:
         35:89:a0:5b:2a:f1:ea:f2:eb:81:76:84:0d:9b:d5:1b:24:05:
         81:d1:c0:b1:1f:fd:19:44:59:db:33:29:fd:ad:75:98:36:af:
         04:8f:8f:11:56:85:bf:82:c3:79:6e:f6:8a:3d:db:81:f8:8f:
         86:e8:c2:51:eb:ec:c2:0f:a7:85:96:39:de:d1:c3:49:af:7d:
         3c:56:fc:14:40:b3:25:cd:ef:0a:9c:a6:e7:ce:b8:9a:15:3e:
         81:96:42:e9:79:e2:43:f6:6e:fb:a8:35:f7:97:ef:4d:8d:79:
         b8:1d:e0:35:8e:43:04:db:0a:a9:97:d2:6d:92:ce:35:fa:e4:
         cc:eb:47:ab:de:db:02:3a:45:d6:a5:e8:bd:4c:2c:56:48:6a:
         63:c9:0b:52:cb:41:b3:08:a0:53:99:f0:72:94:5f:36:a0:20:
         07:57:73:62:bd:4e:3a:c4:5d:ad:fd:47:cf:31:29:eb:56:db:
         9a:cf:30:ce:06:31:58:0d:8b:19:a1:52:c0:54:f7:ba:f5:69:
         9c:e4:b6:ff:bc:5c:c5:df:09:9f:df:eb:f2:5a:af:97:24:c1:
         67:1a:93:64:82:fc:75:1c:23:d3:bc:e2:48:41:42:6f:48:45:
         ee:30:96:18:3c:3a:57:34:97:40:91:e3:fe:e0:30:53:3e:4c:
         33:8b:22:b8:d8:3f:28:9f:05:54:59:dc:8e:c4:8d:76:f6:5b:
         1d:09:9e:64:e5:98:c9:ee:f7:d1:33:8b:59:3d:87:c9:bc:4e:
         6a:8a:7d:8c:77:27:2e:59:d0:ec:12:a3:2a:24:4d:71:09:42:
         95:1a:f8:f2:49:5a:b3:57:5a:77:0d:79:e7:ea:a8:be:c7:1b:
         70:c6:fd:35:a8:85:0d:b9:44:50:c6:43:ec:4c:61:e4:17:0f:
         ff:45:b4:b1:de:4c:c7:10:6e:57:1c:a4:87:0f:16:e1:a6:95:
         d5:41:1d:a4:92:21:ad:6a
-----BEGIN CERTIFICATE-----
MIIFqDCCA5ACCQDDWT2ioHRyITANBgkqhkiG9w0BAQUFADCBlTELMAkGA1UEBhMC
VVMxETAPBgNVBAgTCFZpcmdpbmlhMQ8wDQYDVQQHEwZNY2xlYW4xHjAcBgNVBAoT
FVByb2R1eGkgSW50ZXJuZXR3b3JrczEeMBwGA1UECxMVSW50ZXJuYWwgU1NMIFNl
cnZpY2VzMSIwIAYDVQQDExlQcm9kdXhpIFNTTCBDQSAoSW50ZXJuYWwpMB4XDTEz
MTIyNDE4MzIxMFoXDTI0MDEwMTE4MzIxMFowgZUxCzAJBgNVBAYTAlVTMREwDwYD
VQQIEwhWaXJnaW5pYTEPMA0GA1UEBxMGTWNsZWFuMR4wHAYDVQQKExVQcm9kdXhp
IEludGVybmV0d29ya3MxHjAcBgNVBAsTFUludGVybmFsIFNTTCBTZXJ2aWNlczEi
MCAGA1UEAxMZUHJvZHV4aSBTU0wgQ0EgKEludGVybmFsKTCCAiIwDQYJKoZIhvcN
AQEBBQADggIPADCCAgoCggIBAM0K4puk4qscxpJx6+T+kD6dF2GvpCYixdqvVbLR
02itHi0YL0PoEWYdfY+2kfoZesmpbEmV9/Q1pDOPkcOgrNbr0gq1wvrgIgWcS7fg
atfP7MEtlRZJu/BTW+/HFedzqFCZdwE+yEHBohy5gzKuXC2lkir2EiFl+t5pSP1n
IiIZ4w2X7lC+qVSMDSN2PWS7nbcKC3/YJqRF0MHDDpfMv74vcSFY7ukEvEraYEF/
MAxG5Lp0Guvya8W5kAthuiMW2AUGZ3XwKuAfCznvw0YmXeQKzt4UxzHY0g76s2aT
L5K5HEsrRDt/ZlwqIqDJDdx+6WiqjZwRcpvJUT++yzG5n+fTGVHo3uw8Og1p/3Na
vQXZNRbbltzpQ87wfc1jC3mhOvL/st6kuQtoW2cwYhgyZLVEAZOpo1awAi3uBTyh
WGRMfAd9R73V9GwQvSo+/gJq8Bcs0qEbogWc11luxdMSdY6JNf4apKJvFise/NLS
rVVw/q8m6T457848Mq/4jVlNwiun3rY97MCQNUqRG4pSqspF54ORehRdFIakmgrk
ptiVZjZuZg/gF6aiBe6fINc8PCHKKY1MqkczAeUqpK/mT9En7upV0xxgwHB1BBcF
K++EeXSAD4H6IRiW9KEldFOIOPzKnuz4Wge4w7b3LQoUT572ch4cyzudZMz7n+ET
clIbAgMBAAEwDQYJKoZIhvcNAQEFBQADggIBALqZEigNPYTvXerPUNmeBXjbT3hy
856ypCGcjaLZvl1ZcJnOnpzf8ync7kE5lKXc8c2cKyTAO4WZBy0xHGr5EUenRCaz
jY5YiJLThnACGuooWZGT9atiJFPp8gU/o45mMSLoHflcDanNSxlnSV0Lx+pynzxF
84QNH/yNsUsuXczHgNJ4rpFpIRR71SzAMEwTQDWJoFsq8ery64F2hA2b1RskBYHR
wLEf/RlEWdszKf2tdZg2rwSPjxFWhb+Cw3lu9oo924H4j4bowlHr7MIPp4WWOd7R
w0mvfTxW/BRAsyXN7wqcpufOuJoVPoGWQul54kP2bvuoNfeX702Nebgd4DWOQwTb
CqmX0m2SzjX65MzrR6ve2wI6Rdal6L1MLFZIamPJC1LLQbMIoFOZ8HKUXzagIAdX
c2K9TjrEXa39R88xKetW25rPMM4GMVgNixmhUsBU97r1aZzktv+8XMXfCZ/f6/Ja
r5ckwWcak2SC/HUcI9O84khBQm9IRe4wlhg8Olc0l0CR4/7gMFM+TDOLIrjYPyif
BVRZ3I7EjXb2Wx0JnmTlmMnu99Ezi1k9h8m8TmqKfYx3Jy5Z0OwSoyokTXEJQpUa
+PJJWrNXWncNeefqqL7HG3DG/TWohQ25RFDGQ+xMYeQXD/9FtLHeTMcQblccpIcP
FuGmldVBHaSSIa1q
-----END CERTIFICATE-----
